target datalayout = "e-m:e-p270:32:32-p271:32:32-p272:64:64-i64:64-i128:128-f80:128-n8:16:32:64-S128"
target triple = "x86_64-pc-linux-gnu"

%struct.QMetaObject = type { %"struct.QMetaObject::Data" }
%"struct.QMetaObject::Data" = type { %"struct.QMetaObject::SuperData", ptr, ptr, ptr, ptr, ptr, ptr }
%"struct.QMetaObject::SuperData" = type { ptr }
%class.QString = type { %struct.QArrayDataPointer }
%struct.QArrayDataPointer = type { ptr, ptr, i64 }
%class.IOConsoleDialog = type { %class.GeometryStateDialog, ptr, ptr, ptr, ptr, ptr }
%class.GeometryStateDialog = type { %class.QDialog, %class.QString }
%class.QDialog = type { %class.QWidget }
%class.QWidget = type { %class.QObject, %class.QPaintDevice.base, ptr }
%class.QObject = type { ptr, %class.QScopedPointer }
%class.QScopedPointer = type { ptr }
%class.QPaintDevice.base = type <{ ptr, i16 }>
%class.Ui_IOConsoleDialog = type { ptr, ptr, ptr, ptr, ptr, ptr, ptr }

@_ZN9QTextEdit16staticMetaObjectE = external global %struct.QMetaObject, align 8

; Function Attrs: mustprogress uwtable
define linkonce_odr noundef zeroext i1 @_ZN7QObject10disconnectIM9QTextEditFvvEM15IOConsoleDialogFvvEEEbPKN9QtPrivate15FunctionPointerIT_E6ObjectES9_PKNS8_IT0_E6ObjectESE_(ptr noundef %0, i64 %1, i64 %2, ptr noundef %3, i64 %4, i64 %5) #0 comdat align 2 {
  %7 = alloca { i64, i64 }, align 8
  %8 = alloca { i64, i64 }, align 8
  %9 = alloca ptr, align 8
  %10 = alloca { i64, i64 }, align 8
  %11 = alloca ptr, align 8
  %12 = alloca { i64, i64 }, align 8
  %13 = getelementptr inbounds { i64, i64 }, ptr %7, i32 0, i32 0
  store i64 %1, ptr %13, align 8
  %14 = getelementptr inbounds { i64, i64 }, ptr %7, i32 0, i32 1
  store i64 %2, ptr %14, align 8
  %15 = load { i64, i64 }, ptr %7, align 8
  %16 = getelementptr inbounds { i64, i64 }, ptr %8, i32 0, i32 0
  store i64 %4, ptr %16, align 8
  %17 = getelementptr inbounds { i64, i64 }, ptr %8, i32 0, i32 1
  store i64 %5, ptr %17, align 8
  %18 = load { i64, i64 }, ptr %8, align 8
  store ptr %0, ptr %9, align 8
  store { i64, i64 } %15, ptr %10, align 8
  store ptr %3, ptr %11, align 8
  store { i64, i64 } %18, ptr %12, align 8
  %19 = load ptr, ptr %9, align 8
  %20 = load ptr, ptr %11, align 8
  %21 = call noundef zeroext i1 @_ZN7QObject14disconnectImplEPKS_PPvS1_S3_PK11QMetaObject(ptr noundef %19, ptr noundef %10, ptr noundef %20, ptr noundef %12, ptr noundef @_ZN9QTextEdit16staticMetaObjectE)
  ret i1 %21
}

; Function Attrs: mustprogress uwtable
define void @_ZN15IOConsoleDialog16clearSuccessHintEv(ptr noundef nonnull align 8 dereferenceable(104) %0) #0 align 2 {
  %2 = alloca ptr, align 8
  %3 = alloca { i64, i64 }, align 8
  %4 = alloca { i64, i64 }, align 8
  store ptr %0, ptr %2, align 8
  %5 = load ptr, ptr %2, align 8
  %6 = getelementptr inbounds %class.IOConsoleDialog, ptr %5, i32 0, i32 1
  %7 = load ptr, ptr %6, align 8
  %8 = getelementptr inbounds %class.Ui_IOConsoleDialog, ptr %7, i32 0, i32 5
  %9 = load ptr, ptr %8, align 8
  call void @_ZN6QLabel5clearEv(ptr noundef nonnull align 8 dereferenceable(40) %9)
  %10 = getelementptr inbounds %class.IOConsoleDialog, ptr %5, i32 0, i32 1
  %11 = load ptr, ptr %10, align 8
  %12 = getelementptr inbounds %class.Ui_IOConsoleDialog, ptr %11, i32 0, i32 3
  %13 = load ptr, ptr %12, align 8
  store { i64, i64 } { i64 ptrtoint (ptr @_ZN9QTextEdit11textChangedEv to i64), i64 0 }, ptr %3, align 8
  %14 = getelementptr inbounds { i64, i64 }, ptr %3, i32 0, i32 0
  %15 = load i64, ptr %14, align 8
  %16 = getelementptr inbounds { i64, i64 }, ptr %3, i32 0, i32 1
  %17 = load i64, ptr %16, align 8
  store { i64, i64 } { i64 ptrtoint (ptr @_ZN15IOConsoleDialog16clearSuccessHintEv to i64), i64 0 }, ptr %4, align 8
  %18 = getelementptr inbounds { i64, i64 }, ptr %4, i32 0, i32 0
  %19 = load i64, ptr %18, align 8
  %20 = getelementptr inbounds { i64, i64 }, ptr %4, i32 0, i32 1
  %21 = load i64, ptr %20, align 8
  %22 = call noundef zeroext i1 @_ZN7QObject10disconnectIM9QTextEditFvvEM15IOConsoleDialogFvvEEEbPKN9QtPrivate15FunctionPointerIT_E6ObjectES9_PKNS8_IT0_E6ObjectESE_(ptr noundef %13, i64 %15, i64 %17, ptr noundef %5, i64 %19, i64 %21)
  ret void
}