; Function Attrs: mustprogress uwtable
define void @_ZN15IOConsoleDialog16clearSuccessHintEv(ptr noundef nonnull align 8 dereferenceable(104) %0) #0 align 2 {
  %2 = alloca { i64, i64 }, align 8
  %3 = alloca { i64, i64 }, align 8
  %4 = getelementptr inbounds i8, ptr %0, i64 64
  %5 = load ptr, ptr %4, align 8
  %6 = getelementptr inbounds i8, ptr %5, i64 40
  %7 = load ptr, ptr %6, align 8
  tail call void @_ZN6QLabel5clearEv(ptr noundef nonnull align 8 dereferenceable(40) %7)
  %8 = load ptr, ptr %4, align 8
  %9 = getelementptr inbounds i8, ptr %8, i64 24
  %10 = load ptr, ptr %9, align 8
  call void @llvm.lifetime.start.p0(i64 16, ptr nonnull %2)
  call void @llvm.lifetime.start.p0(i64 16, ptr nonnull %3)
  store i64 ptrtoint (ptr @_ZN9QTextEdit11textChangedEv to i64), ptr %2, align 8
  %.fca.1.gep4.i = getelementptr inbounds i8, ptr %2, i64 8
  store i64 0, ptr %.fca.1.gep4.i, align 8
  store i64 ptrtoint (ptr @_ZN15IOConsoleDialog16clearSuccessHintEv to i64), ptr %3, align 8
  %.fca.1.gep.i = getelementptr inbounds i8, ptr %3, i64 8
  store i64 0, ptr %.fca.1.gep.i, align 8
  %11 = call noundef zeroext i1 @_ZN7QObject14disconnectImplEPKS_PPvS1_S3_PK11QMetaObject(ptr noundef %10, ptr noundef nonnull %2, ptr noundef nonnull %0, ptr noundef nonnull %3, ptr noundef nonnull @_ZN9QTextEdit16staticMetaObjectE)
  call void @llvm.lifetime.end.p0(i64 16, ptr nonnull %2)
  call void @llvm.lifetime.end.p0(i64 16, ptr nonnull %3)
  ret void
}